target datalayout = "e-m:e-p270:32:32-p271:32:32-p272:64:64-i64:64-i128:128-f80:128-n8:16:32:64-S128"
target triple = "x86_64-pc-linux-gnu"

%struct._zend_array = type { %struct._zend_refcounted_h, %union.anon.0, i32, %union.anon.1, i32, i32, i32, i32, i64, ptr }
%struct._zend_refcounted_h = type { i32, %union.anon }
%union.anon = type { i32 }
%union.anon.0 = type { i32 }
%union.anon.1 = type { ptr }
%struct._zval_struct = type { %union._zend_value, %union.anon.3, %union.anon.6 }
%union._zend_value = type { i64 }
%union.anon.3 = type { i32 }
%union.anon.6 = type { i32 }

@php_hash_hashtable = internal global %struct._zend_array zeroinitializer, align 8
@zend_string_init_interned = external global ptr, align 8

; Function Attrs: alwaysinline nounwind uwtable
define internal ptr @zend_hash_add_ptr(ptr noundef %0, ptr noundef %1, ptr noundef %2) #2 {
  %4 = alloca ptr, align 8
  %5 = alloca ptr, align 8
  %6 = alloca ptr, align 8
  %7 = alloca ptr, align 8
  %8 = alloca %struct._zval_struct, align 8
  %9 = alloca ptr, align 8
  %10 = alloca i32, align 4
  store ptr %0, ptr %5, align 8, !tbaa !11
  store ptr %1, ptr %6, align 8, !tbaa !4
  store ptr %2, ptr %7, align 8, !tbaa !20
  call void @llvm.lifetime.start.p0(i64 16, ptr %8) #16
  call void @llvm.lifetime.start.p0(i64 8, ptr %9) #16
  br label %11

11:                                               ; preds = %3
  %12 = load ptr, ptr %7, align 8, !tbaa !20
  %13 = getelementptr inbounds nuw %struct._zval_struct, ptr %8, i32 0, i32 0
  store ptr %12, ptr %13, align 8, !tbaa !15
  %14 = getelementptr inbounds nuw %struct._zval_struct, ptr %8, i32 0, i32 1
  store i32 13, ptr %14, align 8, !tbaa !15
  br label %15

15:                                               ; preds = %11
  br label %16

16:                                               ; preds = %15
  %17 = load ptr, ptr %5, align 8, !tbaa !11
  %18 = load ptr, ptr %6, align 8, !tbaa !4
  %19 = call ptr @zend_hash_add(ptr noundef %17, ptr noundef %18, ptr noundef %8)
  store ptr %19, ptr %9, align 8, !tbaa !13
  %20 = load ptr, ptr %9, align 8, !tbaa !13
  %21 = icmp ne ptr %20, null
  br i1 %21, label %22, label %30

22:                                               ; preds = %16
  %23 = load ptr, ptr %9, align 8, !tbaa !13
  %24 = getelementptr inbounds nuw %struct._zval_struct, ptr %23, i32 0, i32 0
  %25 = load ptr, ptr %24, align 8, !tbaa !15
  %26 = icmp ne ptr %25, null
  call void @llvm.assume(i1 %26)
  %27 = load ptr, ptr %9, align 8, !tbaa !13
  %28 = getelementptr inbounds nuw %struct._zval_struct, ptr %27, i32 0, i32 0
  %29 = load ptr, ptr %28, align 8, !tbaa !15
  store ptr %29, ptr %4, align 8
  store i32 1, ptr %10, align 4
  br label %31

30:                                               ; preds = %16
  store ptr null, ptr %4, align 8
  store i32 1, ptr %10, align 4
  br label %31

31:                                               ; preds = %30, %22
  call void @llvm.lifetime.end.p0(i64 8, ptr %9) #16
  call void @llvm.lifetime.end.p0(i64 16, ptr %8) #16
  %32 = load ptr, ptr %4, align 8
  ret ptr %32
}

; Function Attrs: nounwind uwtable
define dso_local void @php_hash_register_algo(ptr noundef %0, ptr noundef %1) #0 {
  %3 = alloca ptr, align 8
  %4 = alloca ptr, align 8
  %5 = alloca i64, align 8
  %6 = alloca ptr, align 8
  store ptr %0, ptr %3, align 8, !tbaa !16
  store ptr %1, ptr %4, align 8, !tbaa !9
  call void @llvm.lifetime.start.p0(i64 8, ptr %5) #16
  %7 = load ptr, ptr %3, align 8, !tbaa !16
  %8 = call i64 @strlen(ptr noundef %7) #17
  store i64 %8, ptr %5, align 8, !tbaa !18
  call void @llvm.lifetime.start.p0(i64 8, ptr %6) #16
  %9 = load ptr, ptr %3, align 8, !tbaa !16
  %10 = load i64, ptr %5, align 8, !tbaa !18
  %11 = call ptr @zend_str_tolower_dup(ptr noundef %9, i64 noundef %10)
  store ptr %11, ptr %6, align 8, !tbaa !16
  %12 = load ptr, ptr @zend_string_init_interned, align 8, !tbaa !20
  %13 = load ptr, ptr %6, align 8, !tbaa !16
  %14 = load i64, ptr %5, align 8, !tbaa !18
  %15 = call ptr %12(ptr noundef %13, i64 noundef %14, i1 noundef zeroext true)
  %16 = load ptr, ptr %4, align 8, !tbaa !9
  %17 = call ptr @zend_hash_add_ptr(ptr noundef @php_hash_hashtable, ptr noundef %15, ptr noundef %16)
  %18 = load ptr, ptr %6, align 8, !tbaa !16
  call void @_efree(ptr noundef %18)
  call void @llvm.lifetime.end.p0(i64 8, ptr %6) #16
  call void @llvm.lifetime.end.p0(i64 8, ptr %5) #16
  ret void
}