; Function Attrs: nounwind uwtable
define dso_local void @php_hash_register_algo(ptr noundef %0, ptr noundef %1) local_unnamed_addr #0 {
zend_hash_add_ptr.exit:
  %2 = alloca %struct._zval_struct, align 8
  %3 = tail call i64 @strlen(ptr noundef nonnull dereferenceable(1) %0) #17
  %4 = tail call ptr @zend_str_tolower_dup(ptr noundef nonnull %0, i64 noundef %3) #16
  %5 = load ptr, ptr @zend_string_init_interned, align 8, !tbaa !11
  %6 = tail call ptr %5(ptr noundef %4, i64 noundef %3, i1 noundef zeroext true) #16
  call void @llvm.lifetime.start.p0(i64 16, ptr nonnull %2) #16
  store ptr %1, ptr %2, align 8, !tbaa !4
  %7 = getelementptr inbounds nuw i8, ptr %2, i64 8
  store i32 13, ptr %7, align 8, !tbaa !4
  %8 = call ptr @zend_hash_add(ptr noundef nonnull @php_hash_hashtable, ptr noundef %6, ptr noundef nonnull %2) #16
  call void @llvm.lifetime.end.p0(i64 16, ptr nonnull %2) #16
  call void @_efree(ptr noundef %4) #16
  ret void
}